target datalayout = "e-m:e-p270:32:32-p271:32:32-p272:64:64-i64:64-i128:128-f80:128-n8:16:32:64-S128"
target triple = "x86_64-pc-linux-gnu"

%class.anon = type { i8 }

@_ZZN9grpc_core22KernelSupportsErrqueueEvE18errqueue_supported = internal global i8 0, align 1
@_ZGVZN9grpc_core22KernelSupportsErrqueueEvE18errqueue_supported = internal global i64 0, align 8

; Function Attrs: mustprogress uwtable
define noundef zeroext i1 @_ZN9grpc_core22KernelSupportsErrqueueEv() #0 personality ptr @__gxx_personality_v0 {
  %1 = alloca %class.anon, align 1
  %2 = alloca ptr, align 8
  %3 = alloca i32, align 4
  %4 = load atomic i8, ptr @_ZGVZN9grpc_core22KernelSupportsErrqueueEvE18errqueue_supported acquire, align 8
  %5 = icmp eq i8 %4, 0
  br i1 %5, label %6, label %14, !prof !3

6:                                                ; preds = %0
  %7 = call i32 @__cxa_guard_acquire(ptr @_ZGVZN9grpc_core22KernelSupportsErrqueueEvE18errqueue_supported) #1
  %8 = icmp ne i32 %7, 0
  br i1 %8, label %9, label %14

9:                                                ; preds = %6
  call void @llvm.lifetime.start.p0(i64 1, ptr %1) #1
  %10 = invoke noundef zeroext i1 @"_ZZN9grpc_core22KernelSupportsErrqueueEvENK3$_0clEv"(ptr noundef nonnull align 1 dereferenceable(1) %1)
          to label %11 unwind label %17

11:                                               ; preds = %9
  call void @llvm.lifetime.end.p0(i64 1, ptr %1) #1
  %12 = zext i1 %10 to i8
  store i8 %12, ptr @_ZZN9grpc_core22KernelSupportsErrqueueEvE18errqueue_supported, align 1, !tbaa !4
  %13 = call ptr @llvm.invariant.start.p0(i64 1, ptr @_ZZN9grpc_core22KernelSupportsErrqueueEvE18errqueue_supported)
  call void @__cxa_guard_release(ptr @_ZGVZN9grpc_core22KernelSupportsErrqueueEvE18errqueue_supported) #1
  br label %14

14:                                               ; preds = %11, %6, %0
  %15 = load i8, ptr @_ZZN9grpc_core22KernelSupportsErrqueueEvE18errqueue_supported, align 1, !tbaa !4, !range !8, !noundef !9
  %16 = trunc i8 %15 to i1
  ret i1 %16

17:                                               ; preds = %9
  %18 = landingpad { ptr, i32 }
          cleanup
  %19 = extractvalue { ptr, i32 } %18, 0
  store ptr %19, ptr %2, align 8
  %20 = extractvalue { ptr, i32 } %18, 1
  store i32 %20, ptr %3, align 4
  call void @llvm.lifetime.end.p0(i64 1, ptr %1) #1
  call void @__cxa_guard_abort(ptr @_ZGVZN9grpc_core22KernelSupportsErrqueueEvE18errqueue_supported) #1
  br label %21

21:                                               ; preds = %17
  %22 = load ptr, ptr %2, align 8
  %23 = load i32, ptr %3, align 4
  %24 = insertvalue { ptr, i32 } poison, ptr %22, 0
  %25 = insertvalue { ptr, i32 } %24, i32 %23, 1
  resume { ptr, i32 } %25
}