; Function Attrs: mustprogress uwtable
define noundef zeroext i1 @_ZN9grpc_core22KernelSupportsErrqueueEv() local_unnamed_addr #0 personality ptr @__gxx_personality_v0 {
  %1 = load atomic i8, ptr @_ZGVZN9grpc_core22KernelSupportsErrqueueEvE18errqueue_supported acquire, align 8
  %2 = icmp eq i8 %1, 0
  br i1 %2, label %3, label %10, !prof !3

3:                                                ; preds = %0
  %4 = tail call i32 @__cxa_guard_acquire(ptr nonnull @_ZGVZN9grpc_core22KernelSupportsErrqueueEvE18errqueue_supported) #12
  %.not = icmp eq i32 %4, 0
  br i1 %.not, label %10, label %5

5:                                                ; preds = %3
  %6 = invoke fastcc noundef zeroext i1 @"_ZZN9grpc_core22KernelSupportsErrqueueEvENK3$_0clEv"()
          to label %7 unwind label %13

7:                                                ; preds = %5
  %8 = zext i1 %6 to i8
  store i8 %8, ptr @_ZZN9grpc_core22KernelSupportsErrqueueEvE18errqueue_supported, align 1, !tbaa !4
  %9 = tail call ptr @llvm.invariant.start.p0(i64 1, ptr nonnull @_ZZN9grpc_core22KernelSupportsErrqueueEvE18errqueue_supported)
  tail call void @__cxa_guard_release(ptr nonnull @_ZGVZN9grpc_core22KernelSupportsErrqueueEvE18errqueue_supported) #12
  br label %10

10:                                               ; preds = %7, %3, %0
  %11 = load i8, ptr @_ZZN9grpc_core22KernelSupportsErrqueueEvE18errqueue_supported, align 1, !tbaa !4, !range !8, !noundef !9
  %12 = trunc nuw i8 %11 to i1
  ret i1 %12

13:                                               ; preds = %5
  %14 = landingpad { ptr, i32 }
          cleanup
  tail call void @__cxa_guard_abort(ptr nonnull @_ZGVZN9grpc_core22KernelSupportsErrqueueEvE18errqueue_supported) #12
  resume { ptr, i32 } %14
}